; Function Attrs: mustprogress nounwind uwtable
define dso_local void @_ZN4llvm13collectCmpOpsEPNS_7CmpInstERNS_15SmallVectorImplIPNS_5ValueEEE(ptr nocapture noundef readonly %0, ptr noundef nonnull align 8 dereferenceable(16) %1) local_unnamed_addr #0 {
  %3 = getelementptr inbounds i8, ptr %0, i64 -64
  %4 = load ptr, ptr %3, align 8
  %5 = getelementptr inbounds i8, ptr %0, i64 -32
  %6 = load ptr, ptr %5, align 8
  %7 = icmp eq ptr %4, %6
  br i1 %7, label %31, label %8

8:                                                ; preds = %2
  %9 = tail call noundef i64 @_ZNK4llvm15SmallVectorBaseIjE4sizeEv(ptr noundef nonnull align 8 dereferenceable(16) %1) #19
  %10 = add i64 %9, 1
  %11 = tail call noundef i64 @_ZNK4llvm15SmallVectorBaseIjE8capacityEv(ptr noundef nonnull align 8 dereferenceable(16) %1) #19
  %.not.i.i.i = icmp ugt i64 %10, %11
  br i1 %.not.i.i.i, label %12, label %_ZN4llvm23SmallVectorTemplateBaseIPNS_5ValueELb1EE9push_backES2_.exit

12:                                               ; preds = %8
  %13 = getelementptr inbounds i8, ptr %1, i64 16
  tail call void @_ZN4llvm15SmallVectorBaseIjE8grow_podEPvmm(ptr noundef nonnull align 8 dereferenceable(16) %1, ptr noundef nonnull %13, i64 noundef %10, i64 noundef 8) #19
  br label %_ZN4llvm23SmallVectorTemplateBaseIPNS_5ValueELb1EE9push_backES2_.exit

_ZN4llvm23SmallVectorTemplateBaseIPNS_5ValueELb1EE9push_backES2_.exit: ; preds = %8, %12
  %14 = load ptr, ptr %1, align 8
  %15 = tail call noundef i64 @_ZNK4llvm15SmallVectorBaseIjE4sizeEv(ptr noundef nonnull align 8 dereferenceable(16) %1) #19
  %16 = getelementptr inbounds ptr, ptr %14, i64 %15
  %17 = ptrtoint ptr %4 to i64
  store i64 %17, ptr %16, align 1
  %18 = tail call noundef i64 @_ZNK4llvm15SmallVectorBaseIjE4sizeEv(ptr noundef nonnull align 8 dereferenceable(16) %1) #19
  %19 = add i64 %18, 1
  tail call void @_ZN4llvm15SmallVectorBaseIjE8set_sizeEm(ptr noundef nonnull align 8 dereferenceable(16) %1, i64 noundef %19) #19
  %20 = tail call noundef i64 @_ZNK4llvm15SmallVectorBaseIjE4sizeEv(ptr noundef nonnull align 8 dereferenceable(16) %1) #19
  %21 = add i64 %20, 1
  %22 = tail call noundef i64 @_ZNK4llvm15SmallVectorBaseIjE8capacityEv(ptr noundef nonnull align 8 dereferenceable(16) %1) #19
  %.not.i.i.i9 = icmp ugt i64 %21, %22
  br i1 %.not.i.i.i9, label %23, label %_ZN4llvm23SmallVectorTemplateBaseIPNS_5ValueELb1EE9push_backES2_.exit10

23:                                               ; preds = %_ZN4llvm23SmallVectorTemplateBaseIPNS_5ValueELb1EE9push_backES2_.exit
  %24 = getelementptr inbounds i8, ptr %1, i64 16
  tail call void @_ZN4llvm15SmallVectorBaseIjE8grow_podEPvmm(ptr noundef nonnull align 8 dereferenceable(16) %1, ptr noundef nonnull %24, i64 noundef %21, i64 noundef 8) #19
  br label %_ZN4llvm23SmallVectorTemplateBaseIPNS_5ValueELb1EE9push_backES2_.exit10

_ZN4llvm23SmallVectorTemplateBaseIPNS_5ValueELb1EE9push_backES2_.exit10: ; preds = %_ZN4llvm23SmallVectorTemplateBaseIPNS_5ValueELb1EE9push_backES2_.exit, %23
  %25 = load ptr, ptr %1, align 8
  %26 = tail call noundef i64 @_ZNK4llvm15SmallVectorBaseIjE4sizeEv(ptr noundef nonnull align 8 dereferenceable(16) %1) #19
  %27 = getelementptr inbounds ptr, ptr %25, i64 %26
  %28 = ptrtoint ptr %6 to i64
  store i64 %28, ptr %27, align 1
  %29 = tail call noundef i64 @_ZNK4llvm15SmallVectorBaseIjE4sizeEv(ptr noundef nonnull align 8 dereferenceable(16) %1) #19
  %30 = add i64 %29, 1
  tail call void @_ZN4llvm15SmallVectorBaseIjE8set_sizeEm(ptr noundef nonnull align 8 dereferenceable(16) %1, i64 noundef %30) #19
  br label %31

31:                                               ; preds = %2, %_ZN4llvm23SmallVectorTemplateBaseIPNS_5ValueELb1EE9push_backES2_.exit10
  ret void
}